; Function Attrs: nounwind uwtable
define i32 @ERKStepReInit(ptr noundef %0, ptr noundef %1, double noundef %2, ptr noundef %3) local_unnamed_addr #0 {
  %5 = icmp eq ptr %0, null
  br i1 %5, label %6, label %7

6:                                                ; preds = %4
  tail call void (ptr, i32, i32, ptr, ptr, ptr, ...) @arkProcessError(ptr noundef null, i32 noundef -21, i32 noundef 879, ptr noundef nonnull @__func__.ERKStepReInit, ptr noundef nonnull @.str, ptr noundef nonnull @.str.5) #12
  br label %erkStep_AccessARKODEStepMem.exit.thread

7:                                                ; preds = %4
  %8 = getelementptr inbounds nuw i8, ptr %0, i64 136
  %9 = load ptr, ptr %8, align 8, !tbaa !44
  %10 = icmp eq ptr %9, null
  br i1 %10, label %11, label %erkStep_AccessARKODEStepMem.exit

11:                                               ; preds = %7
  tail call void (ptr, i32, i32, ptr, ptr, ptr, ...) @arkProcessError(ptr noundef nonnull %0, i32 noundef -21, i32 noundef 888, ptr noundef nonnull @__func__.ERKStepReInit, ptr noundef nonnull @.str, ptr noundef nonnull @.str.21) #12
  br label %erkStep_AccessARKODEStepMem.exit.thread

erkStep_AccessARKODEStepMem.exit:                 ; preds = %7
  %12 = getelementptr inbounds nuw i8, ptr %0, i64 960
  %13 = load i32, ptr %12, align 8, !tbaa !105
  %14 = icmp eq i32 %13, 0
  br i1 %14, label %15, label %16

15:                                               ; preds = %erkStep_AccessARKODEStepMem.exit
  tail call void (ptr, i32, i32, ptr, ptr, ptr, ...) @arkProcessError(ptr noundef nonnull %0, i32 noundef -23, i32 noundef 182, ptr noundef nonnull @__func__.ERKStepReInit, ptr noundef nonnull @.str, ptr noundef nonnull @.str.9) #12
  br label %erkStep_AccessARKODEStepMem.exit.thread

16:                                               ; preds = %erkStep_AccessARKODEStepMem.exit
  %17 = icmp eq ptr %1, null
  br i1 %17, label %18, label %19

18:                                               ; preds = %16
  tail call void (ptr, i32, i32, ptr, ptr, ptr, ...) @arkProcessError(ptr noundef nonnull %0, i32 noundef -22, i32 noundef 190, ptr noundef nonnull @__func__.ERKStepReInit, ptr noundef nonnull @.str, ptr noundef nonnull @.str.1) #12
  br label %erkStep_AccessARKODEStepMem.exit.thread

19:                                               ; preds = %16
  %20 = icmp eq ptr %3, null
  br i1 %20, label %21, label %22

21:                                               ; preds = %19
  tail call void (ptr, i32, i32, ptr, ptr, ptr, ...) @arkProcessError(ptr noundef nonnull %0, i32 noundef -22, i32 noundef 198, ptr noundef nonnull @__func__.ERKStepReInit, ptr noundef nonnull @.str, ptr noundef nonnull @.str.2) #12
  br label %erkStep_AccessARKODEStepMem.exit.thread

22:                                               ; preds = %19
  store ptr %1, ptr %9, align 8, !tbaa !45
  %23 = tail call i32 @arkInit(ptr noundef nonnull %0, double noundef %2, ptr noundef nonnull %3, i32 noundef 0) #12
  %.not16 = icmp eq i32 %23, 0
  br i1 %.not16, label %25, label %24

24:                                               ; preds = %22
  tail call void (ptr, i32, i32, ptr, ptr, ptr, ...) @arkProcessError(ptr noundef nonnull %0, i32 noundef %23, i32 noundef 210, ptr noundef nonnull @__func__.ERKStepReInit, ptr noundef nonnull @.str, ptr noundef nonnull @.str.8) #12
  br label %erkStep_AccessARKODEStepMem.exit.thread

25:                                               ; preds = %22
  %26 = getelementptr inbounds nuw i8, ptr %9, i64 40
  store i64 0, ptr %26, align 8, !tbaa !85
  br label %erkStep_AccessARKODEStepMem.exit.thread

erkStep_AccessARKODEStepMem.exit.thread:          ; preds = %11, %6, %25, %24, %21, %18, %15
  %.0 = phi i32 [ -23, %15 ], [ -22, %18 ], [ -22, %21 ], [ %23, %24 ], [ 0, %25 ], [ -21, %6 ], [ -21, %11 ]
  ret i32 %.0
}